target datalayout = "e-m:e-p270:32:32-p271:32:32-p272:64:64-i64:64-i128:128-f80:128-n8:16:32:64-S128"
target triple = "x86_64-pc-linux-gnu"

%struct.AVFormatContext = type { ptr, ptr, ptr, ptr, ptr, i32, i32, ptr, i32, ptr, i32, ptr, ptr, i64, i64, i64, i32, i32, i32, i64, i64, ptr, i32, i32, ptr, i32, i32, i32, i32, ptr, i64, i32, i32, %struct.AVIOInterruptCB, i32, i32, i32, i32, i64, i32, i32, i32, i32, i32, i32, i32, i32, i32, i32, i32, i32, i64, i32, i32, i32, i32, i32, ptr, ptr, ptr, ptr, i32, ptr, ptr, ptr, ptr, i32, ptr, ptr, i64, ptr, ptr, ptr, i64 }
%struct.AVIOInterruptCB = type { ptr, ptr }
%struct.RoqDemuxContext = type { i32, i32, i32, i32, i32, i32, i64, i32 }

; Function Attrs: nounwind uwtable
define internal i32 @roq_read_header(ptr noundef %0) #0 {
  %2 = alloca i32, align 4
  %3 = alloca ptr, align 8
  %4 = alloca ptr, align 8
  %5 = alloca ptr, align 8
  %6 = alloca [8 x i8], align 1
  %7 = alloca i32, align 4
  store ptr %0, ptr %3, align 8, !tbaa !14
  call void @llvm.lifetime.start.p0(i64 8, ptr %4) #5
  %8 = load ptr, ptr %3, align 8, !tbaa !14
  %9 = getelementptr inbounds nuw %struct.AVFormatContext, ptr %8, i32 0, i32 3
  %10 = load ptr, ptr %9, align 8, !tbaa !16
  store ptr %10, ptr %4, align 8, !tbaa !31
  call void @llvm.lifetime.start.p0(i64 8, ptr %5) #5
  %11 = load ptr, ptr %3, align 8, !tbaa !14
  %12 = getelementptr inbounds nuw %struct.AVFormatContext, ptr %11, i32 0, i32 4
  %13 = load ptr, ptr %12, align 8, !tbaa !33
  store ptr %13, ptr %5, align 8, !tbaa !34
  call void @llvm.lifetime.start.p0(i64 8, ptr %6) #5
  %14 = load ptr, ptr %5, align 8, !tbaa !34
  %15 = getelementptr inbounds [8 x i8], ptr %6, i64 0, i64 0
  %16 = call i32 @avio_read(ptr noundef %14, ptr noundef %15, i32 noundef 8)
  %17 = icmp ne i32 %16, 8
  br i1 %17, label %18, label %19

18:                                               ; preds = %1
  store i32 -5, ptr %2, align 4
  store i32 1, ptr %7, align 4
  br label %43

19:                                               ; preds = %1
  %20 = getelementptr inbounds [8 x i8], ptr %6, i64 0, i64 6
  %21 = load i16, ptr %20, align 1, !tbaa !13
  %22 = zext i16 %21 to i32
  %23 = load ptr, ptr %4, align 8, !tbaa !31
  %24 = getelementptr inbounds nuw %struct.RoqDemuxContext, ptr %23, i32 0, i32 0
  store i32 %22, ptr %24, align 8, !tbaa !35
  %25 = load ptr, ptr %4, align 8, !tbaa !31
  %26 = getelementptr inbounds nuw %struct.RoqDemuxContext, ptr %25, i32 0, i32 7
  store i32 0, ptr %26, align 8, !tbaa !37
  %27 = load ptr, ptr %4, align 8, !tbaa !31
  %28 = getelementptr inbounds nuw %struct.RoqDemuxContext, ptr %27, i32 0, i32 6
  store i64 0, ptr %28, align 8, !tbaa !38
  %29 = load ptr, ptr %4, align 8, !tbaa !31
  %30 = getelementptr inbounds nuw %struct.RoqDemuxContext, ptr %29, i32 0, i32 3
  store i32 0, ptr %30, align 4, !tbaa !39
  %31 = load ptr, ptr %4, align 8, !tbaa !31
  %32 = getelementptr inbounds nuw %struct.RoqDemuxContext, ptr %31, i32 0, i32 2
  store i32 0, ptr %32, align 8, !tbaa !40
  %33 = load ptr, ptr %4, align 8, !tbaa !31
  %34 = getelementptr inbounds nuw %struct.RoqDemuxContext, ptr %33, i32 0, i32 1
  store i32 0, ptr %34, align 4, !tbaa !41
  %35 = load ptr, ptr %4, align 8, !tbaa !31
  %36 = getelementptr inbounds nuw %struct.RoqDemuxContext, ptr %35, i32 0, i32 5
  store i32 -1, ptr %36, align 4, !tbaa !42
  %37 = load ptr, ptr %4, align 8, !tbaa !31
  %38 = getelementptr inbounds nuw %struct.RoqDemuxContext, ptr %37, i32 0, i32 4
  store i32 -1, ptr %38, align 8, !tbaa !43
  %39 = load ptr, ptr %3, align 8, !tbaa !14
  %40 = getelementptr inbounds nuw %struct.AVFormatContext, ptr %39, i32 0, i32 5
  %41 = load i32, ptr %40, align 8, !tbaa !44
  %42 = or i32 %41, 1
  store i32 %42, ptr %40, align 8, !tbaa !44
  store i32 0, ptr %2, align 4
  store i32 1, ptr %7, align 4
  br label %43

43:                                               ; preds = %19, %18
  call void @llvm.lifetime.end.p0(i64 8, ptr %6) #5
  call void @llvm.lifetime.end.p0(i64 8, ptr %5) #5
  call void @llvm.lifetime.end.p0(i64 8, ptr %4) #5
  %44 = load i32, ptr %2, align 4
  ret i32 %44
}