; Function Attrs: nounwind uwtable
define internal range(i32 -5, 1) i32 @roq_read_header(ptr noundef captures(none) %0) #1 {
  %2 = alloca [8 x i8], align 1
  %3 = getelementptr inbounds nuw i8, ptr %0, i64 24
  %4 = load ptr, ptr %3, align 8, !tbaa !12
  %5 = getelementptr inbounds nuw i8, ptr %0, i64 32
  %6 = load ptr, ptr %5, align 8, !tbaa !27
  call void @llvm.lifetime.start.p0(i64 8, ptr nonnull %2) #4
  %7 = call i32 @avio_read(ptr noundef %6, ptr noundef nonnull %2, i32 noundef 8) #4
  %.not = icmp eq i32 %7, 8
  br i1 %.not, label %8, label %22

8:                                                ; preds = %1
  %9 = getelementptr inbounds nuw i8, ptr %2, i64 6
  %10 = load i16, ptr %9, align 1, !tbaa !11
  %11 = zext i16 %10 to i32
  store i32 %11, ptr %4, align 8, !tbaa !28
  %12 = getelementptr inbounds nuw i8, ptr %4, i64 32
  store i32 0, ptr %12, align 8, !tbaa !30
  %13 = getelementptr inbounds nuw i8, ptr %4, i64 24
  store i64 0, ptr %13, align 8, !tbaa !31
  %14 = getelementptr inbounds nuw i8, ptr %4, i64 12
  store i32 0, ptr %14, align 4, !tbaa !32
  %15 = getelementptr inbounds nuw i8, ptr %4, i64 8
  store i32 0, ptr %15, align 8, !tbaa !33
  %16 = getelementptr inbounds nuw i8, ptr %4, i64 4
  store i32 0, ptr %16, align 4, !tbaa !34
  %17 = getelementptr inbounds nuw i8, ptr %4, i64 20
  store i32 -1, ptr %17, align 4, !tbaa !35
  %18 = getelementptr inbounds nuw i8, ptr %4, i64 16
  store i32 -1, ptr %18, align 8, !tbaa !36
  %19 = getelementptr inbounds nuw i8, ptr %0, i64 40
  %20 = load i32, ptr %19, align 8, !tbaa !37
  %21 = or i32 %20, 1
  store i32 %21, ptr %19, align 8, !tbaa !37
  br label %22

22:                                               ; preds = %1, %8
  %.0 = phi i32 [ 0, %8 ], [ -5, %1 ]
  call void @llvm.lifetime.end.p0(i64 8, ptr nonnull %2) #4
  ret i32 %.0
}